target datalayout = "e-m:e-p270:32:32-p271:32:32-p272:64:64-i64:64-i128:128-f80:128-n8:16:32:64-S128"
target triple = "x86_64-pc-linux-gnu"

%"class.std::__cxx11::basic_string" = type { %"struct.std::__cxx11::basic_string<char>::_Alloc_hider", i64, %union.anon }
%"struct.std::__cxx11::basic_string<char>::_Alloc_hider" = type { ptr }
%union.anon = type { i64, [8 x i8] }
%"class.std::allocator.4" = type { i8 }
%"struct.nix::SQLiteStmt" = type { ptr, ptr, %"class.std::__cxx11::basic_string" }
%"class.nix::SQLiteStmt::Use" = type <{ ptr, i32, [4 x i8] }>

@.str.24 = private unnamed_addr constant [32 x i8] c"executing SQLite statement '%s'\00", align 1

; Function Attrs: mustprogress nounwind uwtable
define linkonce_odr noundef ptr @_ZN3nix10SQLiteStmtcvP12sqlite3_stmtEv(ptr noundef nonnull align 8 dereferenceable(48) %0) #2 comdat align 2 {
  %2 = alloca ptr, align 8
  store ptr %0, ptr %2, align 8
  %3 = load ptr, ptr %2, align 8
  %4 = getelementptr inbounds %"struct.nix::SQLiteStmt", ptr %3, i32 0, i32 1
  %5 = load ptr, ptr %4, align 8
  ret ptr %5
}

; Function Attrs: mustprogress uwtable
define noundef i32 @_ZN3nix10SQLiteStmt3Use4stepEv(ptr noundef nonnull align 8 dereferenceable(12) %0) #3 align 2 {
  %2 = alloca ptr, align 8
  store ptr %0, ptr %2, align 8
  %3 = load ptr, ptr %2, align 8
  %4 = getelementptr inbounds %"class.nix::SQLiteStmt::Use", ptr %3, i32 0, i32 0
  %5 = load ptr, ptr %4, align 8
  %6 = call noundef ptr @_ZN3nix10SQLiteStmtcvP12sqlite3_stmtEv(ptr noundef nonnull align 8 dereferenceable(48) %5)
  %7 = call i32 @sqlite3_step(ptr noundef %6)
  ret i32 %7
}

; Function Attrs: mustprogress uwtable
define void @_ZN3nix10SQLiteStmt3Use4execEv(ptr noundef nonnull align 8 dereferenceable(12) %0) #3 align 2 personality ptr @__gxx_personality_v0 {
  %2 = alloca ptr, align 8
  %3 = alloca i32, align 4
  %4 = alloca %"class.std::__cxx11::basic_string", align 8
  %5 = alloca %"class.std::__cxx11::basic_string", align 8
  %6 = alloca %"class.std::allocator.4", align 1
  %7 = alloca ptr, align 8
  %8 = alloca i32, align 4
  %9 = alloca ptr, align 8
  store ptr %0, ptr %2, align 8
  %10 = load ptr, ptr %2, align 8
  %11 = call noundef i32 @_ZN3nix10SQLiteStmt3Use4stepEv(ptr noundef nonnull align 8 dereferenceable(12) %10)
  store i32 %11, ptr %3, align 4
  %12 = load i32, ptr %3, align 4
  %13 = icmp ne i32 %12, 101
  br i1 %13, label %14, label %42

14:                                               ; preds = %1
  %15 = getelementptr inbounds %"class.nix::SQLiteStmt::Use", ptr %10, i32 0, i32 0
  %16 = load ptr, ptr %15, align 8
  %17 = getelementptr inbounds %"struct.nix::SQLiteStmt", ptr %16, i32 0, i32 0
  %18 = load ptr, ptr %17, align 8
  call void @_ZNSaIcEC1Ev(ptr noundef nonnull align 1 dereferenceable(1) %6) #1
  invoke void @_ZNSt7__cxx1112basic_stringIcSt11char_traitsIcESaIcEEC2IS3_EEPKcRKS3_(ptr noundef nonnull align 8 dereferenceable(32) %5, ptr noundef @.str.24, ptr noundef nonnull align 1 dereferenceable(1) %6)
          to label %19 unwind label %28

19:                                               ; preds = %14
  %20 = getelementptr inbounds %"class.nix::SQLiteStmt::Use", ptr %10, i32 0, i32 0
  %21 = load ptr, ptr %20, align 8
  %22 = getelementptr inbounds %"struct.nix::SQLiteStmt", ptr %21, i32 0, i32 1
  %23 = load ptr, ptr %22, align 8
  %24 = invoke ptr @sqlite3_expanded_sql(ptr noundef %23)
          to label %25 unwind label %32

25:                                               ; preds = %19
  store ptr %24, ptr %9, align 8
  invoke void @_ZN3nix3fmtIJPcEEENSt7__cxx1112basic_stringIcSt11char_traitsIcESaIcEEERKS7_DpRKT_(ptr dead_on_unwind writable sret(%"class.std::__cxx11::basic_string") align 8 %4, ptr noundef nonnull align 8 dereferenceable(32) %5, ptr noundef nonnull align 8 dereferenceable(8) %9)
          to label %26 unwind label %32

26:                                               ; preds = %25
  invoke void @_ZN3nix11SQLiteError6throw_IJEEEvP7sqlite3RKNSt7__cxx1112basic_stringIcSt11char_traitsIcESaIcEEEDpRKT_(ptr noundef %18, ptr noundef nonnull align 8 dereferenceable(32) %4) #18
          to label %27 unwind label %36

27:                                               ; preds = %26
  unreachable

28:                                               ; preds = %14
  %29 = landingpad { ptr, i32 }
          cleanup
  %30 = extractvalue { ptr, i32 } %29, 0
  store ptr %30, ptr %7, align 8
  %31 = extractvalue { ptr, i32 } %29, 1
  store i32 %31, ptr %8, align 4
  br label %41

32:                                               ; preds = %25, %19
  %33 = landingpad { ptr, i32 }
          cleanup
  %34 = extractvalue { ptr, i32 } %33, 0
  store ptr %34, ptr %7, align 8
  %35 = extractvalue { ptr, i32 } %33, 1
  store i32 %35, ptr %8, align 4
  br label %40

36:                                               ; preds = %26
  %37 = landingpad { ptr, i32 }
          cleanup
  %38 = extractvalue { ptr, i32 } %37, 0
  store ptr %38, ptr %7, align 8
  %39 = extractvalue { ptr, i32 } %37, 1
  store i32 %39, ptr %8, align 4
  call void @_ZNSt7__cxx1112basic_stringIcSt11char_traitsIcESaIcEED2Ev(ptr noundef nonnull align 8 dereferenceable(32) %4) #1
  br label %40

40:                                               ; preds = %36, %32
  call void @_ZNSt7__cxx1112basic_stringIcSt11char_traitsIcESaIcEED2Ev(ptr noundef nonnull align 8 dereferenceable(32) %5) #1
  br label %41

41:                                               ; preds = %40, %28
  call void @_ZNSaIcED1Ev(ptr noundef nonnull align 1 dereferenceable(1) %6) #1
  br label %43

42:                                               ; preds = %1
  ret void

43:                                               ; preds = %41
  %44 = load ptr, ptr %7, align 8
  %45 = load i32, ptr %8, align 4
  %46 = insertvalue { ptr, i32 } poison, ptr %44, 0
  %47 = insertvalue { ptr, i32 } %46, i32 %45, 1
  resume { ptr, i32 } %47
}