; Function Attrs: mustprogress uwtable
define void @_ZN3nix10SQLiteStmt3Use4execEv(ptr nocapture noundef nonnull readonly align 8 dereferenceable(12) %0) local_unnamed_addr #2 align 2 personality ptr @__gxx_personality_v0 {
  %2 = alloca %"class.std::__cxx11::basic_string", align 8
  %3 = alloca %"class.std::__cxx11::basic_string", align 8
  %4 = alloca %"class.std::allocator.4", align 1
  %5 = alloca ptr, align 8
  %6 = load ptr, ptr %0, align 8
  %7 = getelementptr inbounds i8, ptr %6, i64 8
  %8 = load ptr, ptr %7, align 8
  %9 = tail call noundef i32 @sqlite3_step(ptr noundef %8)
  %.not = icmp eq i32 %9, 101
  br i1 %.not, label %29, label %10

10:                                               ; preds = %1
  %11 = load ptr, ptr %0, align 8
  %12 = load ptr, ptr %11, align 8
  call void @_ZNSaIcEC1Ev(ptr noundef nonnull align 1 dereferenceable(1) %4) #22
  invoke void @_ZNSt7__cxx1112basic_stringIcSt11char_traitsIcESaIcEEC2IS3_EEPKcRKS3_(ptr noundef nonnull align 8 dereferenceable(32) %3, ptr noundef nonnull @.str.24, ptr noundef nonnull align 1 dereferenceable(1) %4)
          to label %13 unwind label %21

13:                                               ; preds = %10
  %14 = load ptr, ptr %0, align 8
  %15 = getelementptr inbounds i8, ptr %14, i64 8
  %16 = load ptr, ptr %15, align 8
  %17 = invoke ptr @sqlite3_expanded_sql(ptr noundef %16)
          to label %18 unwind label %23

18:                                               ; preds = %13
  store ptr %17, ptr %5, align 8
  invoke void @_ZN3nix3fmtIJPcEEENSt7__cxx1112basic_stringIcSt11char_traitsIcESaIcEEERKS7_DpRKT_(ptr dead_on_unwind nonnull writable sret(%"class.std::__cxx11::basic_string") align 8 %2, ptr noundef nonnull align 8 dereferenceable(32) %3, ptr noundef nonnull align 8 dereferenceable(8) %5)
          to label %19 unwind label %23

19:                                               ; preds = %18
  invoke void @_ZN3nix11SQLiteError6throw_IJEEEvP7sqlite3RKNSt7__cxx1112basic_stringIcSt11char_traitsIcESaIcEEEDpRKT_(ptr noundef %12, ptr noundef nonnull align 8 dereferenceable(32) %2) #24
          to label %20 unwind label %25

20:                                               ; preds = %19
  unreachable

21:                                               ; preds = %10
  %22 = landingpad { ptr, i32 }
          cleanup
  br label %28

23:                                               ; preds = %18, %13
  %24 = landingpad { ptr, i32 }
          cleanup
  br label %27

25:                                               ; preds = %19
  %26 = landingpad { ptr, i32 }
          cleanup
  call void @_ZNSt7__cxx1112basic_stringIcSt11char_traitsIcESaIcEED2Ev(ptr noundef nonnull align 8 dereferenceable(32) %2) #22
  br label %27

27:                                               ; preds = %25, %23
  %.pn = phi { ptr, i32 } [ %26, %25 ], [ %24, %23 ]
  call void @_ZNSt7__cxx1112basic_stringIcSt11char_traitsIcESaIcEED2Ev(ptr noundef nonnull align 8 dereferenceable(32) %3) #22
  br label %28

28:                                               ; preds = %27, %21
  %.pn.pn = phi { ptr, i32 } [ %.pn, %27 ], [ %22, %21 ]
  call void @_ZNSaIcED1Ev(ptr noundef nonnull align 1 dereferenceable(1) %4) #22
  resume { ptr, i32 } %.pn.pn

29:                                               ; preds = %1
  ret void
}